; Function Attrs: nounwind uwtable
define internal i32 @error_do_write(ptr noundef %0, ptr noundef readonly captures(none) %1, i32 noundef %2, ptr noundef %3, i64 noundef %4) #0 {
  %6 = alloca [256 x i8], align 16
  %7 = and i32 %2, 1
  %8 = icmp ne i32 %7, 0
  %9 = icmp ne i64 %4, 0
  %or.cond = and i1 %8, %9
  br i1 %or.cond, label %14, label %10

10:                                               ; preds = %5
  %11 = getelementptr inbounds nuw i8, ptr %1, i64 8
  %12 = load ptr, ptr %11, align 8, !tbaa !100
  %13 = tail call i32 @Curl_cwriter_write(ptr noundef %0, ptr noundef %12, i32 noundef %2, ptr noundef %3, i64 noundef %4) #8
  br label %15

14:                                               ; preds = %5
  call void @llvm.lifetime.start.p0(i64 256, ptr nonnull %6) #8
  call void @Curl_all_content_encodings(ptr noundef nonnull %6, i64 noundef 256)
  call void (ptr, ptr, ...) @Curl_failf(ptr noundef %0, ptr noundef nonnull @.str.19, ptr noundef nonnull %6) #8
  call void @llvm.lifetime.end.p0(i64 256, ptr nonnull %6) #8
  br label %15

15:                                               ; preds = %14, %10
  %.0 = phi i32 [ 61, %14 ], [ %13, %10 ]
  ret i32 %.0
}